target datalayout = "e-m:e-p270:32:32-p271:32:32-p272:64:64-i64:64-i128:128-f80:128-n8:16:32:64-S128"
target triple = "x86_64-pc-linux-gnu"

%struct.hwloc_infos_s = type { ptr, i32, i32 }
%struct.hwloc_obj = type { i32, ptr, i32, ptr, i64, ptr, i32, i32, ptr, ptr, ptr, i32, ptr, ptr, i32, ptr, ptr, ptr, i32, i32, ptr, i32, ptr, i32, ptr, ptr, ptr, ptr, ptr, %struct.hwloc_infos_s, ptr, i64 }

; Function Attrs: nounwind uwtable
define hidden void @hwloc_alloc_root_sets(ptr noundef %0) #0 {
  %2 = alloca ptr, align 8
  store ptr %0, ptr %2, align 8, !tbaa !37
  %3 = load ptr, ptr %2, align 8, !tbaa !37
  %4 = getelementptr inbounds nuw %struct.hwloc_obj, ptr %3, i32 0, i32 25
  %5 = load ptr, ptr %4, align 8, !tbaa !39
  %6 = icmp ne ptr %5, null
  br i1 %6, label %11, label %7

7:                                                ; preds = %1
  %8 = call noalias ptr @hwloc_bitmap_alloc()
  %9 = load ptr, ptr %2, align 8, !tbaa !37
  %10 = getelementptr inbounds nuw %struct.hwloc_obj, ptr %9, i32 0, i32 25
  store ptr %8, ptr %10, align 8, !tbaa !39
  br label %11

11:                                               ; preds = %7, %1
  %12 = load ptr, ptr %2, align 8, !tbaa !37
  %13 = getelementptr inbounds nuw %struct.hwloc_obj, ptr %12, i32 0, i32 26
  %14 = load ptr, ptr %13, align 8, !tbaa !53
  %15 = icmp ne ptr %14, null
  br i1 %15, label %20, label %16

16:                                               ; preds = %11
  %17 = call noalias ptr @hwloc_bitmap_alloc()
  %18 = load ptr, ptr %2, align 8, !tbaa !37
  %19 = getelementptr inbounds nuw %struct.hwloc_obj, ptr %18, i32 0, i32 26
  store ptr %17, ptr %19, align 8, !tbaa !53
  br label %20

20:                                               ; preds = %16, %11
  %21 = load ptr, ptr %2, align 8, !tbaa !37
  %22 = getelementptr inbounds nuw %struct.hwloc_obj, ptr %21, i32 0, i32 27
  %23 = load ptr, ptr %22, align 8, !tbaa !76
  %24 = icmp ne ptr %23, null
  br i1 %24, label %29, label %25

25:                                               ; preds = %20
  %26 = call noalias ptr @hwloc_bitmap_alloc()
  %27 = load ptr, ptr %2, align 8, !tbaa !37
  %28 = getelementptr inbounds nuw %struct.hwloc_obj, ptr %27, i32 0, i32 27
  store ptr %26, ptr %28, align 8, !tbaa !76
  br label %29

29:                                               ; preds = %25, %20
  %30 = load ptr, ptr %2, align 8, !tbaa !37
  %31 = getelementptr inbounds nuw %struct.hwloc_obj, ptr %30, i32 0, i32 28
  %32 = load ptr, ptr %31, align 8, !tbaa !77
  %33 = icmp ne ptr %32, null
  br i1 %33, label %38, label %34

34:                                               ; preds = %29
  %35 = call noalias ptr @hwloc_bitmap_alloc()
  %36 = load ptr, ptr %2, align 8, !tbaa !37
  %37 = getelementptr inbounds nuw %struct.hwloc_obj, ptr %36, i32 0, i32 28
  store ptr %35, ptr %37, align 8, !tbaa !77
  br label %38

38:                                               ; preds = %34, %29
  ret void
}