; Function Attrs: nounwind uwtable
define hidden void @hwloc_alloc_root_sets(ptr noundef captures(none) %0) local_unnamed_addr #5 {
  %2 = getelementptr inbounds nuw i8, ptr %0, i64 184
  %3 = load ptr, ptr %2, align 8, !tbaa !45
  %.not = icmp eq ptr %3, null
  br i1 %.not, label %4, label %6

4:                                                ; preds = %1
  %5 = tail call noalias ptr @hwloc_bitmap_alloc() #34
  store ptr %5, ptr %2, align 8, !tbaa !45
  br label %6

6:                                                ; preds = %4, %1
  %7 = getelementptr inbounds nuw i8, ptr %0, i64 192
  %8 = load ptr, ptr %7, align 8, !tbaa !54
  %.not8 = icmp eq ptr %8, null
  br i1 %.not8, label %9, label %11

9:                                                ; preds = %6
  %10 = tail call noalias ptr @hwloc_bitmap_alloc() #34
  store ptr %10, ptr %7, align 8, !tbaa !54
  br label %11

11:                                               ; preds = %9, %6
  %12 = getelementptr inbounds nuw i8, ptr %0, i64 200
  %13 = load ptr, ptr %12, align 8, !tbaa !83
  %.not9 = icmp eq ptr %13, null
  br i1 %.not9, label %14, label %16

14:                                               ; preds = %11
  %15 = tail call noalias ptr @hwloc_bitmap_alloc() #34
  store ptr %15, ptr %12, align 8, !tbaa !83
  br label %16

16:                                               ; preds = %14, %11
  %17 = getelementptr inbounds nuw i8, ptr %0, i64 208
  %18 = load ptr, ptr %17, align 8, !tbaa !84
  %.not10 = icmp eq ptr %18, null
  br i1 %.not10, label %19, label %21

19:                                               ; preds = %16
  %20 = tail call noalias ptr @hwloc_bitmap_alloc() #34
  store ptr %20, ptr %17, align 8, !tbaa !84
  br label %21

21:                                               ; preds = %19, %16
  ret void
}